; Function Attrs: mustprogress nofree nounwind uwtable
define dso_local noundef i64 @_ZNSt3__112__rs_defaultclEv(ptr noundef nonnull readnone align 1 captures(none) dereferenceable(1) %0) local_unnamed_addr #2 align 2 personality ptr @__gxx_personality_v0 {
  %2 = load atomic i8, ptr @_ZGVZNSt3__112__rs_defaultclEvE6__rs_g acquire, align 8
  %3 = icmp eq i8 %2, 0
  br i1 %3, label %4, label %17, !prof !9

4:                                                ; preds = %1
  %5 = tail call i32 @__cxa_guard_acquire(ptr nonnull @_ZGVZNSt3__112__rs_defaultclEvE6__rs_g) #5
  %.not = icmp eq i32 %5, 0
  br i1 %.not, label %17, label %6

6:                                                ; preds = %4
  store i64 5489, ptr @_ZZNSt3__112__rs_defaultclEvE6__rs_g, align 8, !tbaa !10
  br label %7

7:                                                ; preds = %7, %6
  %8 = phi i64 [ 5489, %6 ], [ %13, %7 ]
  %.07.i.i.i = phi i64 [ 1, %6 ], [ %15, %7 ]
  %9 = lshr i64 %8, 30
  %10 = xor i64 %9, %8
  %11 = mul nuw nsw i64 %10, 1812433253
  %12 = add nuw i64 %11, %.07.i.i.i
  %13 = and i64 %12, 4294967295
  %14 = getelementptr inbounds nuw [624 x i64], ptr @_ZZNSt3__112__rs_defaultclEvE6__rs_g, i64 0, i64 %.07.i.i.i
  store i64 %13, ptr %14, align 8, !tbaa !10
  %15 = add nuw nsw i64 %.07.i.i.i, 1
  %exitcond.not.i.i.i = icmp eq i64 %15, 624
  br i1 %exitcond.not.i.i.i, label %16, label %7, !llvm.loop !12

16:                                               ; preds = %7
  store i64 0, ptr getelementptr inbounds nuw (i8, ptr @_ZZNSt3__112__rs_defaultclEvE6__rs_g, i64 4992), align 8, !tbaa !14
  tail call void @__cxa_guard_release(ptr nonnull @_ZGVZNSt3__112__rs_defaultclEvE6__rs_g) #5
  br label %17

17:                                               ; preds = %16, %4, %1
  %18 = load i64, ptr getelementptr inbounds nuw (i8, ptr @_ZZNSt3__112__rs_defaultclEvE6__rs_g, i64 4992), align 8, !tbaa !14
  %19 = add i64 %18, 1
  %20 = urem i64 %19, 624
  %21 = getelementptr inbounds nuw [624 x i64], ptr @_ZZNSt3__112__rs_defaultclEvE6__rs_g, i64 0, i64 %18
  %22 = load i64, ptr %21, align 8, !tbaa !10
  %23 = and i64 %22, -2147483648
  %24 = getelementptr inbounds nuw [624 x i64], ptr @_ZZNSt3__112__rs_defaultclEvE6__rs_g, i64 0, i64 %20
  %25 = load i64, ptr %24, align 8, !tbaa !10
  %26 = and i64 %25, 2147483646
  %27 = or disjoint i64 %26, %23
  %28 = add i64 %18, 397
  %29 = urem i64 %28, 624
  %30 = getelementptr inbounds nuw [624 x i64], ptr @_ZZNSt3__112__rs_defaultclEvE6__rs_g, i64 0, i64 %29
  %31 = load i64, ptr %30, align 8, !tbaa !10
  %32 = lshr exact i64 %27, 1
  %33 = trunc i64 %25 to i1
  %34 = select i1 %33, i64 2567483615, i64 0
  %35 = xor i64 %34, %31
  %36 = xor i64 %35, %32
  store i64 %36, ptr %21, align 8, !tbaa !10
  %37 = load i64, ptr getelementptr inbounds nuw (i8, ptr @_ZZNSt3__112__rs_defaultclEvE6__rs_g, i64 4992), align 8, !tbaa !14
  %38 = getelementptr inbounds nuw [624 x i64], ptr @_ZZNSt3__112__rs_defaultclEvE6__rs_g, i64 0, i64 %37
  %39 = load i64, ptr %38, align 8, !tbaa !10
  %40 = lshr i64 %39, 11
  %41 = and i64 %40, 4294967295
  %42 = xor i64 %41, %39
  store i64 %20, ptr getelementptr inbounds nuw (i8, ptr @_ZZNSt3__112__rs_defaultclEvE6__rs_g, i64 4992), align 8, !tbaa !14
  %43 = shl i64 %42, 7
  %44 = and i64 %43, 2636928640
  %45 = xor i64 %44, %42
  %46 = shl i64 %45, 15
  %47 = and i64 %46, 4022730752
  %48 = xor i64 %47, %45
  %49 = lshr i64 %48, 18
  %50 = xor i64 %49, %48
  ret i64 %50
}